target datalayout = "e-m:e-p270:32:32-p271:32:32-p272:64:64-i64:64-i128:128-f80:128-n8:16:32:64-S128"
target triple = "x86_64-unknown-linux-gnu"

%"class.std::basic_string_view" = type { i64, ptr }
%"class.std::tuple.47" = type { %"struct.std::_Tuple_impl.48" }
%"struct.std::_Tuple_impl.48" = type { %"struct.std::_Tuple_impl.49", %"struct.std::_Head_base.51" }
%"struct.std::_Tuple_impl.49" = type { %"struct.std::_Head_base.50" }
%"struct.std::_Head_base.50" = type { i8 }
%"struct.std::_Head_base.51" = type { ptr }

@.str.42 = private unnamed_addr constant [3 x i8] c"no\00", align 1

; Function Attrs: mustprogress nounwind uwtable
define linkonce_odr dso_local void @_ZNSt10_Head_baseILm1EbLb0EEC2IRbEEOT_(ptr noundef nonnull align 1 dereferenceable(1) %this, ptr noundef nonnull align 1 dereferenceable(1) %__h) unnamed_addr #6 comdat align 2 {
entry:
  %this.addr = alloca ptr, align 8
  %__h.addr = alloca ptr, align 8
  store ptr %this, ptr %this.addr, align 8
  store ptr %__h, ptr %__h.addr, align 8
  %this1 = load ptr, ptr %this.addr, align 8
  %_M_head_impl = getelementptr inbounds %"struct.std::_Head_base.50", ptr %this1, i32 0, i32 0
  %0 = load ptr, ptr %__h.addr, align 8
  %1 = load i8, ptr %0, align 1
  %tobool = trunc i8 %1 to i1
  %frombool = zext i1 %tobool to i8
  store i8 %frombool, ptr %_M_head_impl, align 1
  ret void
}

; Function Attrs: mustprogress nounwind uwtable
define linkonce_odr dso_local void @_ZNSt10_Head_baseILm0EPN4absl15CommandLineFlagELb0EEC2IRS2_EEOT_(ptr noundef nonnull align 8 dereferenceable(8) %this, ptr noundef nonnull align 8 dereferenceable(8) %__h) unnamed_addr #6 comdat align 2 {
entry:
  %this.addr = alloca ptr, align 8
  %__h.addr = alloca ptr, align 8
  store ptr %this, ptr %this.addr, align 8
  store ptr %__h, ptr %__h.addr, align 8
  %this1 = load ptr, ptr %this.addr, align 8
  %_M_head_impl = getelementptr inbounds %"struct.std::_Head_base.51", ptr %this1, i32 0, i32 0
  %0 = load ptr, ptr %__h.addr, align 8
  %1 = load ptr, ptr %0, align 8
  store ptr %1, ptr %_M_head_impl, align 8
  ret void
}

; Function Attrs: mustprogress uwtable
define linkonce_odr dso_local void @_ZNSt11_Tuple_implILm1EJbEEC2IRbEEOT_(ptr noundef nonnull align 1 dereferenceable(1) %this, ptr noundef nonnull align 1 dereferenceable(1) %__head) unnamed_addr #5 comdat align 2 {
entry:
  %this.addr = alloca ptr, align 8
  %__head.addr = alloca ptr, align 8
  store ptr %this, ptr %this.addr, align 8
  store ptr %__head, ptr %__head.addr, align 8
  %this1 = load ptr, ptr %this.addr, align 8
  %0 = load ptr, ptr %__head.addr, align 8
  call void @_ZNSt10_Head_baseILm1EbLb0EEC2IRbEEOT_(ptr noundef nonnull align 1 dereferenceable(1) %this1, ptr noundef nonnull align 1 dereferenceable(1) %0)
  ret void
}

; Function Attrs: mustprogress uwtable
define linkonce_odr dso_local void @_ZNSt11_Tuple_implILm0EJPN4absl15CommandLineFlagEbEEC2IRS2_JRbEvEEOT_DpOT0_(ptr noundef nonnull align 8 dereferenceable(16) %this, ptr noundef nonnull align 8 dereferenceable(8) %__head, ptr noundef nonnull align 1 dereferenceable(1) %__tail) unnamed_addr #5 comdat align 2 {
entry:
  %this.addr = alloca ptr, align 8
  %__head.addr = alloca ptr, align 8
  %__tail.addr = alloca ptr, align 8
  store ptr %this, ptr %this.addr, align 8
  store ptr %__head, ptr %__head.addr, align 8
  store ptr %__tail, ptr %__tail.addr, align 8
  %this1 = load ptr, ptr %this.addr, align 8
  %0 = load ptr, ptr %__tail.addr, align 8
  call void @_ZNSt11_Tuple_implILm1EJbEEC2IRbEEOT_(ptr noundef nonnull align 1 dereferenceable(1) %this1, ptr noundef nonnull align 1 dereferenceable(1) %0)
  %1 = getelementptr inbounds i8, ptr %this1, i64 8
  %2 = load ptr, ptr %__head.addr, align 8
  call void @_ZNSt10_Head_baseILm0EPN4absl15CommandLineFlagELb0EEC2IRS2_EEOT_(ptr noundef nonnull align 8 dereferenceable(8) %1, ptr noundef nonnull align 8 dereferenceable(8) %2)
  ret void
}

; Function Attrs: mustprogress nounwind uwtable
define linkonce_odr dso_local noundef ptr @_ZNKSt17basic_string_viewIcSt11char_traitsIcEE4dataEv(ptr noundef nonnull align 8 dereferenceable(16) %this) #6 comdat align 2 {
entry:
  %this.addr = alloca ptr, align 8
  store ptr %this, ptr %this.addr, align 8
  %this1 = load ptr, ptr %this.addr, align 8
  %_M_str = getelementptr inbounds %"class.std::basic_string_view", ptr %this1, i32 0, i32 1
  %0 = load ptr, ptr %_M_str, align 8
  ret ptr %0
}

; Function Attrs: mustprogress nounwind uwtable
define linkonce_odr dso_local noundef zeroext i1 @_ZNKSt17basic_string_viewIcSt11char_traitsIcEE5emptyEv(ptr noundef nonnull align 8 dereferenceable(16) %this) #6 comdat align 2 {
entry:
  %this.addr = alloca ptr, align 8
  store ptr %this, ptr %this.addr, align 8
  %this1 = load ptr, ptr %this.addr, align 8
  %_M_len = getelementptr inbounds %"class.std::basic_string_view", ptr %this1, i32 0, i32 0
  %0 = load i64, ptr %_M_len, align 8
  %cmp = icmp eq i64 %0, 0
  ret i1 %cmp
}

; Function Attrs: mustprogress nounwind uwtable
define linkonce_odr dso_local void @_ZNSt5tupleIJPN4absl15CommandLineFlagEbEEC2IRS2_RbTnNSt9enable_ifIXclsr4_TCCIXntcl14__is_alloc_argIT_EEEEE29__is_implicitly_constructibleIS8_T0_EEEbE4typeELb1EEEOS8_OS9_(ptr noundef nonnull align 8 dereferenceable(16) %this, ptr noundef nonnull align 8 dereferenceable(8) %__a1, ptr noundef nonnull align 1 dereferenceable(1) %__a2) unnamed_addr #6 comdat align 2 personality ptr @__gxx_personality_v0 {
entry:
  %this.addr = alloca ptr, align 8
  %__a1.addr = alloca ptr, align 8
  %__a2.addr = alloca ptr, align 8
  store ptr %this, ptr %this.addr, align 8
  store ptr %__a1, ptr %__a1.addr, align 8
  store ptr %__a2, ptr %__a2.addr, align 8
  %this1 = load ptr, ptr %this.addr, align 8
  %0 = load ptr, ptr %__a1.addr, align 8
  %1 = load ptr, ptr %__a2.addr, align 8
  invoke void @_ZNSt11_Tuple_implILm0EJPN4absl15CommandLineFlagEbEEC2IRS2_JRbEvEEOT_DpOT0_(ptr noundef nonnull align 8 dereferenceable(16) %this1, ptr noundef nonnull align 8 dereferenceable(8) %0, ptr noundef nonnull align 1 dereferenceable(1) %1)
          to label %invoke.cont unwind label %terminate.lpad

invoke.cont:                                      ; preds = %entry
  ret void

terminate.lpad:                                   ; preds = %entry
  %2 = landingpad { ptr, i32 }
          catch ptr null
  %3 = extractvalue { ptr, i32 } %2, 0
  call void @__clang_call_terminate(ptr %3) #17
  unreachable
}

; Function Attrs: mustprogress nounwind uwtable
define linkonce_odr dso_local void @_ZNSt17basic_string_viewIcSt11char_traitsIcEE13remove_prefixEm(ptr noundef nonnull align 8 dereferenceable(16) %this, i64 noundef %__n) #6 comdat align 2 {
entry:
  %this.addr = alloca ptr, align 8
  %__n.addr = alloca i64, align 8
  store ptr %this, ptr %this.addr, align 8
  store i64 %__n, ptr %__n.addr, align 8
  %this1 = load ptr, ptr %this.addr, align 8
  br label %do.body

do.body:                                          ; preds = %entry
  br label %do.cond

do.cond:                                          ; preds = %do.body
  br label %do.end

do.end:                                           ; preds = %do.cond
  %0 = load i64, ptr %__n.addr, align 8
  %_M_str = getelementptr inbounds %"class.std::basic_string_view", ptr %this1, i32 0, i32 1
  %1 = load ptr, ptr %_M_str, align 8
  %add.ptr = getelementptr inbounds i8, ptr %1, i64 %0
  store ptr %add.ptr, ptr %_M_str, align 8
  %2 = load i64, ptr %__n.addr, align 8
  %_M_len = getelementptr inbounds %"class.std::basic_string_view", ptr %this1, i32 0, i32 0
  %3 = load i64, ptr %_M_len, align 8
  %sub = sub i64 %3, %2
  store i64 %sub, ptr %_M_len, align 8
  ret void
}

; Function Attrs: mustprogress nounwind uwtable
define linkonce_odr dso_local noundef i64 @_ZNKSt17basic_string_viewIcSt11char_traitsIcEE4sizeEv(ptr noundef nonnull align 8 dereferenceable(16) %this) #6 comdat align 2 {
entry:
  %this.addr = alloca ptr, align 8
  store ptr %this, ptr %this.addr, align 8
  %this1 = load ptr, ptr %this.addr, align 8
  %_M_len = getelementptr inbounds %"class.std::basic_string_view", ptr %this1, i32 0, i32 0
  %0 = load i64, ptr %_M_len, align 8
  ret i64 %0
}

; Function Attrs: mustprogress nounwind uwtable
define linkonce_odr dso_local noundef zeroext i1 @_ZN4absl10StartsWithESt17basic_string_viewIcSt11char_traitsIcEES3_(i64 %text.coerce0, ptr %text.coerce1, i64 %prefix.coerce0, ptr %prefix.coerce1) #6 comdat {
entry:
  %text = alloca %"class.std::basic_string_view", align 8
  %prefix = alloca %"class.std::basic_string_view", align 8
  %0 = getelementptr inbounds { i64, ptr }, ptr %text, i32 0, i32 0
  store i64 %text.coerce0, ptr %0, align 8
  %1 = getelementptr inbounds { i64, ptr }, ptr %text, i32 0, i32 1
  store ptr %text.coerce1, ptr %1, align 8
  %2 = getelementptr inbounds { i64, ptr }, ptr %prefix, i32 0, i32 0
  store i64 %prefix.coerce0, ptr %2, align 8
  %3 = getelementptr inbounds { i64, ptr }, ptr %prefix, i32 0, i32 1
  store ptr %prefix.coerce1, ptr %3, align 8
  %call = call noundef zeroext i1 @_ZNKSt17basic_string_viewIcSt11char_traitsIcEE5emptyEv(ptr noundef nonnull align 8 dereferenceable(16) %prefix) #3
  br i1 %call, label %lor.end, label %lor.rhs

lor.rhs:                                          ; preds = %entry
  %call1 = call noundef i64 @_ZNKSt17basic_string_viewIcSt11char_traitsIcEE4sizeEv(ptr noundef nonnull align 8 dereferenceable(16) %text) #3
  %call2 = call noundef i64 @_ZNKSt17basic_string_viewIcSt11char_traitsIcEE4sizeEv(ptr noundef nonnull align 8 dereferenceable(16) %prefix) #3
  %cmp = icmp uge i64 %call1, %call2
  br i1 %cmp, label %land.rhs, label %land.end

land.rhs:                                         ; preds = %lor.rhs
  %call3 = call noundef ptr @_ZNKSt17basic_string_viewIcSt11char_traitsIcEE4dataEv(ptr noundef nonnull align 8 dereferenceable(16) %text) #3
  %call4 = call noundef ptr @_ZNKSt17basic_string_viewIcSt11char_traitsIcEE4dataEv(ptr noundef nonnull align 8 dereferenceable(16) %prefix) #3
  %call5 = call noundef i64 @_ZNKSt17basic_string_viewIcSt11char_traitsIcEE4sizeEv(ptr noundef nonnull align 8 dereferenceable(16) %prefix) #3
  %call6 = call i32 @memcmp(ptr noundef %call3, ptr noundef %call4, i64 noundef %call5) #21
  %cmp7 = icmp eq i32 %call6, 0
  br label %land.end

land.end:                                         ; preds = %land.rhs, %lor.rhs
  %4 = phi i1 [ false, %lor.rhs ], [ %cmp7, %land.rhs ]
  br label %lor.end

lor.end:                                          ; preds = %land.end, %entry
  %5 = phi i1 [ true, %entry ], [ %4, %land.end ]
  ret i1 %5
}

; Function Attrs: noreturn nounwind uwtable
define linkonce_odr hidden void @__clang_call_terminate(ptr noundef %0) #10 comdat {
  %2 = call ptr @__cxa_begin_catch(ptr %0) #3
  call void @_ZSt9terminatev() #17
  unreachable
}

; Function Attrs: mustprogress nounwind uwtable
define linkonce_odr dso_local noundef i64 @_ZNSt11char_traitsIcE6lengthEPKc(ptr noundef %__s) #6 comdat align 2 {
entry:
  %__s.addr = alloca ptr, align 8
  store ptr %__s, ptr %__s.addr, align 8
  %0 = load ptr, ptr %__s.addr, align 8
  %call = call i64 @strlen(ptr noundef %0) #3
  ret i64 %call
}

; Function Attrs: mustprogress nounwind uwtable
define linkonce_odr dso_local void @_ZSt10make_tupleIJRPN4absl15CommandLineFlagERbEESt5tupleIJDpNSt25__strip_reference_wrapperINSt5decayIT_E4typeEE6__typeEEEDpOS8_(ptr noalias sret(%"class.std::tuple.47") align 8 %agg.result, ptr noundef nonnull align 8 dereferenceable(8) %__args, ptr noundef nonnull align 1 dereferenceable(1) %__args1) #6 comdat {
entry:
  %result.ptr = alloca ptr, align 8
  %__args.addr = alloca ptr, align 8
  %__args.addr2 = alloca ptr, align 8
  store ptr %agg.result, ptr %result.ptr, align 8
  store ptr %__args, ptr %__args.addr, align 8
  store ptr %__args1, ptr %__args.addr2, align 8
  %0 = load ptr, ptr %__args.addr, align 8
  %1 = load ptr, ptr %__args.addr2, align 8
  call void @_ZNSt5tupleIJPN4absl15CommandLineFlagEbEEC2IRS2_RbTnNSt9enable_ifIXclsr4_TCCIXntcl14__is_alloc_argIT_EEEEE29__is_implicitly_constructibleIS8_T0_EEEbE4typeELb1EEEOS8_OS9_(ptr noundef nonnull align 8 dereferenceable(16) %agg.result, ptr noundef nonnull align 8 dereferenceable(8) %0, ptr noundef nonnull align 1 dereferenceable(1) %1) #3
  ret void
}

; Function Attrs: mustprogress nounwind uwtable
define linkonce_odr dso_local noundef zeroext i1 @_ZN4absl13ConsumePrefixEPSt17basic_string_viewIcSt11char_traitsIcEES3_(ptr noundef %str, i64 %expected.coerce0, ptr %expected.coerce1) #6 comdat {
entry:
  %retval = alloca i1, align 1
  %expected = alloca %"class.std::basic_string_view", align 8
  %str.addr = alloca ptr, align 8
  %agg.tmp = alloca %"class.std::basic_string_view", align 8
  %agg.tmp1 = alloca %"class.std::basic_string_view", align 8
  %0 = getelementptr inbounds { i64, ptr }, ptr %expected, i32 0, i32 0
  store i64 %expected.coerce0, ptr %0, align 8
  %1 = getelementptr inbounds { i64, ptr }, ptr %expected, i32 0, i32 1
  store ptr %expected.coerce1, ptr %1, align 8
  store ptr %str, ptr %str.addr, align 8
  %2 = load ptr, ptr %str.addr, align 8
  call void @llvm.memcpy.p0.p0.i64(ptr align 8 %agg.tmp, ptr align 8 %2, i64 16, i1 false)
  call void @llvm.memcpy.p0.p0.i64(ptr align 8 %agg.tmp1, ptr align 8 %expected, i64 16, i1 false)
  %3 = getelementptr inbounds { i64, ptr }, ptr %agg.tmp, i32 0, i32 0
  %4 = load i64, ptr %3, align 8
  %5 = getelementptr inbounds { i64, ptr }, ptr %agg.tmp, i32 0, i32 1
  %6 = load ptr, ptr %5, align 8
  %7 = getelementptr inbounds { i64, ptr }, ptr %agg.tmp1, i32 0, i32 0
  %8 = load i64, ptr %7, align 8
  %9 = getelementptr inbounds { i64, ptr }, ptr %agg.tmp1, i32 0, i32 1
  %10 = load ptr, ptr %9, align 8
  %call = call noundef zeroext i1 @_ZN4absl10StartsWithESt17basic_string_viewIcSt11char_traitsIcEES3_(i64 %4, ptr %6, i64 %8, ptr %10) #3
  br i1 %call, label %if.end, label %if.then

if.then:                                          ; preds = %entry
  store i1 false, ptr %retval, align 1
  br label %return

if.end:                                           ; preds = %entry
  %11 = load ptr, ptr %str.addr, align 8
  %call2 = call noundef i64 @_ZNKSt17basic_string_viewIcSt11char_traitsIcEE4sizeEv(ptr noundef nonnull align 8 dereferenceable(16) %expected) #3
  call void @_ZNSt17basic_string_viewIcSt11char_traitsIcEE13remove_prefixEm(ptr noundef nonnull align 8 dereferenceable(16) %11, i64 noundef %call2) #3
  store i1 true, ptr %retval, align 1
  br label %return

return:                                           ; preds = %if.end, %if.then
  %12 = load i1, ptr %retval, align 1
  ret i1 %12
}

; Function Attrs: mustprogress nounwind uwtable
define linkonce_odr dso_local void @_ZNSt17basic_string_viewIcSt11char_traitsIcEEC2EPKc(ptr noundef nonnull align 8 dereferenceable(16) %this, ptr noundef nonnull %__str) unnamed_addr #6 comdat align 2 personality ptr @__gxx_personality_v0 {
entry:
  %this.addr = alloca ptr, align 8
  %__str.addr = alloca ptr, align 8
  store ptr %this, ptr %this.addr, align 8
  store ptr %__str, ptr %__str.addr, align 8
  %this1 = load ptr, ptr %this.addr, align 8
  %_M_len = getelementptr inbounds %"class.std::basic_string_view", ptr %this1, i32 0, i32 0
  %0 = load ptr, ptr %__str.addr, align 8
  %call = invoke noundef i64 @_ZNSt11char_traitsIcE6lengthEPKc(ptr noundef %0)
          to label %invoke.cont unwind label %terminate.lpad

invoke.cont:                                      ; preds = %entry
  store i64 %call, ptr %_M_len, align 8
  %_M_str = getelementptr inbounds %"class.std::basic_string_view", ptr %this1, i32 0, i32 1
  %1 = load ptr, ptr %__str.addr, align 8
  store ptr %1, ptr %_M_str, align 8
  ret void

terminate.lpad:                                   ; preds = %entry
  %2 = landingpad { ptr, i32 }
          catch ptr null
  %3 = extractvalue { ptr, i32 } %2, 0
  call void @__clang_call_terminate(ptr %3) #17
  unreachable
}

; Function Attrs: mustprogress uwtable
define internal void @_ZN4absl14flags_internal12_GLOBAL__N_110LocateFlagESt17basic_string_viewIcSt11char_traitsIcEE(ptr noalias sret(%"class.std::tuple.47") align 8 %agg.result, i64 %flag_name.coerce0, ptr %flag_name.coerce1) #5 {
entry:
  %result.ptr = alloca ptr, align 8
  %flag_name = alloca %"class.std::basic_string_view", align 8
  %flag = alloca ptr, align 8
  %agg.tmp = alloca %"class.std::basic_string_view", align 8
  %is_negative = alloca i8, align 1
  %agg.tmp1 = alloca %"class.std::basic_string_view", align 8
  %agg.tmp3 = alloca %"class.std::basic_string_view", align 8
  store ptr %agg.result, ptr %result.ptr, align 8
  %0 = getelementptr inbounds { i64, ptr }, ptr %flag_name, i32 0, i32 0
  store i64 %flag_name.coerce0, ptr %0, align 8
  %1 = getelementptr inbounds { i64, ptr }, ptr %flag_name, i32 0, i32 1
  store ptr %flag_name.coerce1, ptr %1, align 8
  call void @llvm.memcpy.p0.p0.i64(ptr align 8 %agg.tmp, ptr align 8 %flag_name, i64 16, i1 false)
  %2 = getelementptr inbounds { i64, ptr }, ptr %agg.tmp, i32 0, i32 0
  %3 = load i64, ptr %2, align 8
  %4 = getelementptr inbounds { i64, ptr }, ptr %agg.tmp, i32 0, i32 1
  %5 = load ptr, ptr %4, align 8
  %call = call noundef ptr @_ZN4absl19FindCommandLineFlagESt17basic_string_viewIcSt11char_traitsIcEE(i64 %3, ptr %5)
  store ptr %call, ptr %flag, align 8
  store i8 0, ptr %is_negative, align 1
  %6 = load ptr, ptr %flag, align 8
  %tobool = icmp ne ptr %6, null
  br i1 %tobool, label %if.end, label %land.lhs.true

land.lhs.true:                                    ; preds = %entry
  call void @_ZNSt17basic_string_viewIcSt11char_traitsIcEEC2EPKc(ptr noundef nonnull align 8 dereferenceable(16) %agg.tmp1, ptr noundef @.str.42) #3
  %7 = getelementptr inbounds { i64, ptr }, ptr %agg.tmp1, i32 0, i32 0
  %8 = load i64, ptr %7, align 8
  %9 = getelementptr inbounds { i64, ptr }, ptr %agg.tmp1, i32 0, i32 1
  %10 = load ptr, ptr %9, align 8
  %call2 = call noundef zeroext i1 @_ZN4absl13ConsumePrefixEPSt17basic_string_viewIcSt11char_traitsIcEES3_(ptr noundef %flag_name, i64 %8, ptr %10)
  br i1 %call2, label %if.then, label %if.end

if.then:                                          ; preds = %land.lhs.true
  call void @llvm.memcpy.p0.p0.i64(ptr align 8 %agg.tmp3, ptr align 8 %flag_name, i64 16, i1 false)
  %11 = getelementptr inbounds { i64, ptr }, ptr %agg.tmp3, i32 0, i32 0
  %12 = load i64, ptr %11, align 8
  %13 = getelementptr inbounds { i64, ptr }, ptr %agg.tmp3, i32 0, i32 1
  %14 = load ptr, ptr %13, align 8
  %call4 = call noundef ptr @_ZN4absl19FindCommandLineFlagESt17basic_string_viewIcSt11char_traitsIcEE(i64 %12, ptr %14)
  store ptr %call4, ptr %flag, align 8
  store i8 1, ptr %is_negative, align 1
  br label %if.end

if.end:                                           ; preds = %if.then, %land.lhs.true, %entry
  call void @_ZSt10make_tupleIJRPN4absl15CommandLineFlagERbEESt5tupleIJDpNSt25__strip_reference_wrapperINSt5decayIT_E4typeEE6__typeEEEDpOS8_(ptr sret(%"class.std::tuple.47") align 8 %agg.result, ptr noundef nonnull align 8 dereferenceable(8) %flag, ptr noundef nonnull align 1 dereferenceable(1) %is_negative)
  ret void
}