; Function Attrs: mustprogress uwtable
define internal fastcc void @_ZN4absl14flags_internal12_GLOBAL__N_110LocateFlagESt17basic_string_viewIcSt11char_traitsIcEE(ptr noalias nocapture writeonly align 8 %agg.result, i64 %flag_name.coerce0, ptr %flag_name.coerce1) unnamed_addr #3 personality ptr @__gxx_personality_v0 {
entry:
  %call = tail call noundef ptr @_ZN4absl19FindCommandLineFlagESt17basic_string_viewIcSt11char_traitsIcEE(i64 %flag_name.coerce0, ptr %flag_name.coerce1)
  %tobool.not = icmp eq ptr %call, null
  br i1 %tobool.not, label %lor.rhs.i.i, label %if.end

lor.rhs.i.i:                                      ; preds = %entry
  %cmp.not.i.i = icmp ult i64 %flag_name.coerce0, 2
  br i1 %cmp.not.i.i, label %if.end, label %_ZN4absl10StartsWithESt17basic_string_viewIcSt11char_traitsIcEES3_.exit.i

_ZN4absl10StartsWithESt17basic_string_viewIcSt11char_traitsIcEES3_.exit.i: ; preds = %lor.rhs.i.i
  %bcmp.i.i = tail call i32 @bcmp(ptr noundef nonnull dereferenceable(2) %flag_name.coerce1, ptr noundef nonnull dereferenceable(2) @.str.42, i64 2)
  %cmp7.i.i = icmp eq i32 %bcmp.i.i, 0
  br i1 %cmp7.i.i, label %if.then, label %if.end

if.then:                                          ; preds = %_ZN4absl10StartsWithESt17basic_string_viewIcSt11char_traitsIcEES3_.exit.i
  %add.ptr.i.i = getelementptr inbounds i8, ptr %flag_name.coerce1, i64 2
  %sub.i.i = add i64 %flag_name.coerce0, -2
  %call4 = tail call noundef ptr @_ZN4absl19FindCommandLineFlagESt17basic_string_viewIcSt11char_traitsIcEE(i64 %sub.i.i, ptr nonnull %add.ptr.i.i)
  br label %if.end

if.end:                                           ; preds = %lor.rhs.i.i, %_ZN4absl10StartsWithESt17basic_string_viewIcSt11char_traitsIcEES3_.exit.i, %if.then, %entry
  %flag.0 = phi ptr [ %call4, %if.then ], [ %call, %entry ], [ null, %_ZN4absl10StartsWithESt17basic_string_viewIcSt11char_traitsIcEES3_.exit.i ], [ null, %lor.rhs.i.i ]
  %is_negative.0 = phi i8 [ 1, %if.then ], [ 0, %entry ], [ 0, %_ZN4absl10StartsWithESt17basic_string_viewIcSt11char_traitsIcEES3_.exit.i ], [ 0, %lor.rhs.i.i ]
  store i8 %is_negative.0, ptr %agg.result, align 8, !alias.scope !120
  %0 = getelementptr inbounds i8, ptr %agg.result, i64 8
  store ptr %flag.0, ptr %0, align 8, !alias.scope !120
  ret void
}